target datalayout = "e-m:e-p270:32:32-p271:32:32-p272:64:64-i64:64-i128:128-f80:128-n8:16:32:64-S128"
target triple = "x86_64-pc-linux-gnu"

@malloc_cnt = internal global i32 0, align 4
@free_cnt = internal global i32 0, align 4
@realloc_cnt = internal global i32 0, align 4

; Function Attrs: nounwind uwtable
define dso_local i32 @memcb_test() #0 {
  %1 = alloca i32, align 4
  %2 = alloca i32, align 4
  %3 = alloca ptr, align 8
  %4 = alloca ptr, align 8
  %5 = alloca ptr, align 8
  %6 = alloca ptr, align 8
  %7 = alloca i32, align 4
  %8 = alloca ptr, align 8
  %9 = alloca ptr, align 8
  %10 = alloca ptr, align 8
  %11 = alloca ptr, align 8
  call void @llvm.lifetime.start.p0(i64 4, ptr %2) #10
  store i32 0, ptr %2, align 4, !tbaa !14
  call void @llvm.lifetime.start.p0(i64 8, ptr %3) #10
  store ptr null, ptr %3, align 8, !tbaa !15
  call void @llvm.lifetime.start.p0(i64 8, ptr %4) #10
  call void @llvm.lifetime.start.p0(i64 8, ptr %5) #10
  call void @llvm.lifetime.start.p0(i64 8, ptr %6) #10
  br label %12

12:                                               ; preds = %0
  br label %13

13:                                               ; preds = %12
  br label %14

14:                                               ; preds = %13
  %15 = call i32 @wolfSSL_GetAllocators(ptr noundef %4, ptr noundef %5, ptr noundef %6)
  store i32 %15, ptr %2, align 4, !tbaa !14
  %16 = load i32, ptr %2, align 4, !tbaa !14
  %17 = icmp ne i32 %16, 0
  br i1 %17, label %18, label %30

18:                                               ; preds = %14
  %19 = load i32, ptr %2, align 4, !tbaa !14
  %20 = sub nsw i32 0, %19
  %21 = zext i32 %20 to i64
  %22 = and i64 %21, 2047
  %23 = trunc i64 %22 to i32
  %24 = sext i32 %23 to i64
  %25 = mul nsw i64 %24, 100000
  %26 = add nsw i64 58368, %25
  %27 = add nsw i64 %26, 536870912
  %28 = sub nsw i64 0, %27
  %29 = trunc i64 %28 to i32
  store i32 %29, ptr %1, align 4
  store i32 1, ptr %7, align 4
  br label %128

30:                                               ; preds = %14
  %31 = load ptr, ptr %3, align 8, !tbaa !15
  %32 = call ptr @wolfSSL_Realloc(ptr noundef %31, i64 noundef 1024)
  store ptr %32, ptr %3, align 8, !tbaa !15
  %33 = load ptr, ptr %3, align 8, !tbaa !15
  %34 = icmp eq ptr %33, null
  br i1 %34, label %35, label %50

35:                                               ; preds = %30
  br label %36

36:                                               ; preds = %35
  %37 = call ptr @__errno_location() #12
  %38 = load i32, ptr %37, align 4, !tbaa !14
  %39 = zext i32 %38 to i64
  %40 = and i64 %39, 2047
  %41 = trunc i64 %40 to i32
  %42 = sext i32 %41 to i64
  %43 = mul nsw i64 %42, 100000
  %44 = add nsw i64 58376, %43
  %45 = add nsw i64 %44, 1073741824
  %46 = sub nsw i64 0, %45
  %47 = trunc i64 %46 to i32
  store i32 %47, ptr %2, align 4, !tbaa !14
  br label %122

48:                                               ; No predecessors!
  br label %49

49:                                               ; preds = %48
  br label %50

50:                                               ; preds = %49, %30
  br label %51

51:                                               ; preds = %50
  call void @llvm.lifetime.start.p0(i64 8, ptr %8) #10
  %52 = load ptr, ptr %3, align 8, !tbaa !15
  store ptr %52, ptr %8, align 8, !tbaa !4
  %53 = load ptr, ptr %8, align 8, !tbaa !4
  %54 = icmp ne ptr %53, null
  br i1 %54, label %55, label %57

55:                                               ; preds = %51
  %56 = load ptr, ptr %8, align 8, !tbaa !4
  call void @wolfSSL_Free(ptr noundef %56)
  br label %57

57:                                               ; preds = %55, %51
  call void @llvm.lifetime.end.p0(i64 8, ptr %8) #10
  br label %58

58:                                               ; preds = %57
  br label %59

59:                                               ; preds = %58
  store ptr null, ptr %3, align 8, !tbaa !15
  %60 = call i32 @wolfSSL_SetAllocators(ptr noundef @my_Malloc_cb, ptr noundef @my_Free_cb, ptr noundef @my_Realloc_cb)
  store i32 %60, ptr %2, align 4, !tbaa !14
  %61 = load i32, ptr %2, align 4, !tbaa !14
  %62 = icmp ne i32 %61, 0
  br i1 %62, label %63, label %78

63:                                               ; preds = %59
  br label %64

64:                                               ; preds = %63
  %65 = load i32, ptr %2, align 4, !tbaa !14
  %66 = sub nsw i32 0, %65
  %67 = zext i32 %66 to i64
  %68 = and i64 %67, 2047
  %69 = trunc i64 %68 to i32
  %70 = sext i32 %69 to i64
  %71 = mul nsw i64 %70, 100000
  %72 = add nsw i64 58386, %71
  %73 = add nsw i64 %72, 536870912
  %74 = sub nsw i64 0, %73
  %75 = trunc i64 %74 to i32
  store i32 %75, ptr %2, align 4, !tbaa !14
  br label %122

76:                                               ; No predecessors!
  br label %77

77:                                               ; preds = %76
  br label %78

78:                                               ; preds = %77, %59
  %79 = call ptr @wolfSSL_Malloc(i64 noundef 1024)
  store ptr %79, ptr %3, align 8, !tbaa !15
  call void @llvm.lifetime.start.p0(i64 8, ptr %9) #10
  %80 = load ptr, ptr %3, align 8, !tbaa !15
  %81 = call ptr @wolfSSL_Realloc(ptr noundef %80, i64 noundef 1024)
  store ptr %81, ptr %9, align 8, !tbaa !15
  %82 = load ptr, ptr %9, align 8, !tbaa !15
  %83 = icmp ne ptr %82, null
  br i1 %83, label %84, label %86

84:                                               ; preds = %78
  %85 = load ptr, ptr %9, align 8, !tbaa !15
  store ptr %85, ptr %3, align 8, !tbaa !15
  br label %99

86:                                               ; preds = %78
  br label %87

87:                                               ; preds = %86
  call void @llvm.lifetime.start.p0(i64 8, ptr %10) #10
  %88 = load ptr, ptr %3, align 8, !tbaa !15
  store ptr %88, ptr %10, align 8, !tbaa !4
  %89 = load ptr, ptr %10, align 8, !tbaa !4
  %90 = icmp ne ptr %89, null
  br i1 %90, label %91, label %93

91:                                               ; preds = %87
  %92 = load ptr, ptr %10, align 8, !tbaa !4
  call void @wolfSSL_Free(ptr noundef %92)
  br label %93

93:                                               ; preds = %91, %87
  call void @llvm.lifetime.end.p0(i64 8, ptr %10) #10
  br label %94

94:                                               ; preds = %93
  br label %95

95:                                               ; preds = %94
  br label %96

96:                                               ; preds = %95
  store i32 -549429308, ptr %2, align 4, !tbaa !14
  store i32 6, ptr %7, align 4
  br label %100

97:                                               ; No predecessors!
  br label %98

98:                                               ; preds = %97
  br label %99

99:                                               ; preds = %98, %84
  store i32 0, ptr %7, align 4
  br label %100

100:                                              ; preds = %96, %99
  call void @llvm.lifetime.end.p0(i64 8, ptr %9) #10
  %101 = load i32, ptr %7, align 4
  switch i32 %101, label %128 [
    i32 0, label %102
    i32 6, label %122
  ]

102:                                              ; preds = %100
  br label %103

103:                                              ; preds = %102
  call void @llvm.lifetime.start.p0(i64 8, ptr %11) #10
  %104 = load ptr, ptr %3, align 8, !tbaa !15
  store ptr %104, ptr %11, align 8, !tbaa !4
  %105 = load ptr, ptr %11, align 8, !tbaa !4
  %106 = icmp ne ptr %105, null
  br i1 %106, label %107, label %109

107:                                              ; preds = %103
  %108 = load ptr, ptr %11, align 8, !tbaa !4
  call void @wolfSSL_Free(ptr noundef %108)
  br label %109

109:                                              ; preds = %107, %103
  call void @llvm.lifetime.end.p0(i64 8, ptr %11) #10
  br label %110

110:                                              ; preds = %109
  br label %111

111:                                              ; preds = %110
  %112 = load i32, ptr @malloc_cnt, align 4, !tbaa !14
  %113 = icmp ne i32 %112, 1
  br i1 %113, label %120, label %114

114:                                              ; preds = %111
  %115 = load i32, ptr @free_cnt, align 4, !tbaa !14
  %116 = icmp ne i32 %115, 1
  br i1 %116, label %120, label %117

117:                                              ; preds = %114
  %118 = load i32, ptr @realloc_cnt, align 4, !tbaa !14
  %119 = icmp ne i32 %118, 1
  br i1 %119, label %120, label %121

120:                                              ; preds = %117, %114, %111
  store i32 -58411, ptr %2, align 4, !tbaa !14
  br label %121

121:                                              ; preds = %120, %117
  br label %122

122:                                              ; preds = %121, %100, %64, %36
  store i32 0, ptr @malloc_cnt, align 4, !tbaa !14
  store i32 0, ptr @free_cnt, align 4, !tbaa !14
  store i32 0, ptr @realloc_cnt, align 4, !tbaa !14
  %123 = load ptr, ptr %4, align 8, !tbaa !4
  %124 = load ptr, ptr %5, align 8, !tbaa !4
  %125 = load ptr, ptr %6, align 8, !tbaa !4
  %126 = call i32 @wolfSSL_SetAllocators(ptr noundef %123, ptr noundef %124, ptr noundef %125)
  %127 = load i32, ptr %2, align 4, !tbaa !14
  store i32 %127, ptr %1, align 4
  store i32 1, ptr %7, align 4
  br label %128

128:                                              ; preds = %122, %100, %18
  call void @llvm.lifetime.end.p0(i64 8, ptr %6) #10
  call void @llvm.lifetime.end.p0(i64 8, ptr %5) #10
  call void @llvm.lifetime.end.p0(i64 8, ptr %4) #10
  call void @llvm.lifetime.end.p0(i64 8, ptr %3) #10
  call void @llvm.lifetime.end.p0(i64 4, ptr %2) #10
  %129 = load i32, ptr %1, align 4
  ret i32 %129
}