; Function Attrs: nounwind uwtable
define dso_local range(i32 -1278500200, 1) i32 @memcb_test() local_unnamed_addr #0 {
  %1 = alloca ptr, align 8
  %2 = alloca ptr, align 8
  %3 = alloca ptr, align 8
  call void @llvm.lifetime.start.p0(i64 8, ptr nonnull %1) #19
  call void @llvm.lifetime.start.p0(i64 8, ptr nonnull %2) #19
  call void @llvm.lifetime.start.p0(i64 8, ptr nonnull %3) #19
  %4 = call i32 @wolfSSL_GetAllocators(ptr noundef nonnull %1, ptr noundef nonnull %2, ptr noundef nonnull %3) #19
  %.not = icmp eq i32 %4, 0
  br i1 %.not, label %9, label %5

5:                                                ; preds = %0
  %6 = sub nsw i32 0, %4
  %7 = and i32 %6, 2047
  %narrow.neg43 = mul nsw i32 %7, -100000
  %8 = add nsw i32 %narrow.neg43, -536929280
  br label %39

9:                                                ; preds = %0
  %10 = call ptr @wolfSSL_Realloc(ptr noundef null, i64 noundef 1024) #19
  %11 = icmp eq ptr %10, null
  br i1 %11, label %12, label %17

12:                                               ; preds = %9
  %13 = tail call ptr @__errno_location() #21
  %14 = load i32, ptr %13, align 4, !tbaa !22
  %15 = and i32 %14, 2047
  %narrow.neg40 = mul nsw i32 %15, -100000
  %16 = add nsw i32 %narrow.neg40, -1073800200
  br label %.thread

17:                                               ; preds = %9
  call void @wolfSSL_Free(ptr noundef nonnull %10) #19
  %18 = call i32 @wolfSSL_SetAllocators(ptr noundef nonnull @my_Malloc_cb, ptr noundef nonnull @my_Free_cb, ptr noundef nonnull @my_Realloc_cb) #19
  %.not32 = icmp eq i32 %18, 0
  br i1 %.not32, label %23, label %19

19:                                               ; preds = %17
  %20 = sub nsw i32 0, %18
  %21 = and i32 %20, 2047
  %narrow.neg = mul nsw i32 %21, -100000
  %22 = add nsw i32 %narrow.neg, -536929298
  br label %.thread

23:                                               ; preds = %17
  %24 = call ptr @wolfSSL_Malloc(i64 noundef 1024) #19
  %25 = call ptr @wolfSSL_Realloc(ptr noundef %24, i64 noundef 1024) #19
  %.not33 = icmp eq ptr %25, null
  br i1 %.not33, label %26, label %28

26:                                               ; preds = %23
  %.not34 = icmp eq ptr %24, null
  br i1 %.not34, label %.thread, label %27

27:                                               ; preds = %26
  call void @wolfSSL_Free(ptr noundef nonnull %24) #19
  br label %.thread

28:                                               ; preds = %23
  call void @wolfSSL_Free(ptr noundef nonnull %25) #19
  %29 = load i32, ptr @malloc_cnt, align 4, !tbaa !22
  %30 = icmp ne i32 %29, 1
  %31 = load i32, ptr @free_cnt, align 4
  %32 = icmp ne i32 %31, 1
  %or.cond = select i1 %30, i1 true, i1 %32
  %33 = load i32, ptr @realloc_cnt, align 4
  %34 = icmp ne i32 %33, 1
  %or.cond3 = select i1 %or.cond, i1 true, i1 %34
  %spec.select = select i1 %or.cond3, i32 -58411, i32 0
  br label %.thread

.thread:                                          ; preds = %26, %27, %28, %19, %12
  %.023 = phi i32 [ %16, %12 ], [ %22, %19 ], [ %spec.select, %28 ], [ -549429308, %27 ], [ -549429308, %26 ]
  store i32 0, ptr @malloc_cnt, align 4, !tbaa !22
  store i32 0, ptr @free_cnt, align 4, !tbaa !22
  store i32 0, ptr @realloc_cnt, align 4, !tbaa !22
  %35 = load ptr, ptr %1, align 8, !tbaa !119
  %36 = load ptr, ptr %2, align 8, !tbaa !119
  %37 = load ptr, ptr %3, align 8, !tbaa !119
  %38 = call i32 @wolfSSL_SetAllocators(ptr noundef %35, ptr noundef %36, ptr noundef %37) #19
  br label %39

39:                                               ; preds = %.thread, %5
  %.0 = phi i32 [ %8, %5 ], [ %.023, %.thread ]
  call void @llvm.lifetime.end.p0(i64 8, ptr nonnull %3) #19
  call void @llvm.lifetime.end.p0(i64 8, ptr nonnull %2) #19
  call void @llvm.lifetime.end.p0(i64 8, ptr nonnull %1) #19
  ret i32 %.0
}